target datalayout = "e-m:e-p270:32:32-p271:32:32-p272:64:64-i64:64-i128:128-f80:128-n8:16:32:64-S128"
target triple = "x86_64-pc-linux-gnu"

%"class.pxrInternal_v0_24__pxrReserved__::TfToken" = type { %"class.pxrInternal_v0_24__pxrReserved__::TfPointerAndBits" }
%"class.pxrInternal_v0_24__pxrReserved__::TfPointerAndBits" = type { ptr }
%"class.std::__cxx11::basic_string" = type { %"struct.std::__cxx11::basic_string<char>::_Alloc_hider", i64, %union.anon }
%"struct.std::__cxx11::basic_string<char>::_Alloc_hider" = type { ptr }
%union.anon = type { i64, [8 x i8] }
%"struct.pxrInternal_v0_24__pxrReserved__::TfToken::_Rep" = type { %"struct.std::atomic.231", i32, i64, %"class.std::__cxx11::basic_string", ptr }
%"struct.std::atomic.231" = type { %"struct.std::__atomic_base.232" }
%"struct.std::__atomic_base.232" = type { i32 }
%class.anon.362 = type { i8 }
%class.anon.364 = type { i8 }
%class.anon.366 = type { i8 }

; Function Attrs: mustprogress nounwind uwtable
define linkonce_odr noundef i64 @_ZN32pxrInternal_v0_24__pxrReserved__16TfPointerAndBitsIKNS_7TfToken4_RepEE9_GetAlignEv() #1 comdat align 2 {
  ret i64 8
}

; Function Attrs: noreturn nounwind uwtable
define linkonce_odr hidden void @__clang_call_terminate(ptr noundef %0) #10 comdat {
  %2 = call ptr @__cxa_begin_catch(ptr %0) #7
  call void @_ZSt9terminatev() #18
  unreachable
}

; Function Attrs: mustprogress nounwind uwtable
define linkonce_odr noundef i64 @_ZNK32pxrInternal_v0_24__pxrReserved__16TfPointerAndBitsIKNS_7TfToken4_RepEE11GetMaxValueEv(ptr noundef nonnull align 8 dereferenceable(8) %0) #1 comdat align 2 {
  %2 = alloca ptr, align 8
  store ptr %0, ptr %2, align 8
  %3 = call noundef i64 @_ZN32pxrInternal_v0_24__pxrReserved__16TfPointerAndBitsIKNS_7TfToken4_RepEE9_GetAlignEv() #7
  %4 = sub i64 %3, 1
  ret i64 %4
}

; Function Attrs: mustprogress nounwind uwtable
define linkonce_odr noundef ptr @_ZNK32pxrInternal_v0_24__pxrReserved__16TfPointerAndBitsIKNS_7TfToken4_RepEE6_AsPtrEm(ptr noundef nonnull align 8 dereferenceable(8) %0, i64 noundef %1) #1 comdat align 2 {
  %3 = alloca ptr, align 8
  %4 = alloca i64, align 8
  store ptr %0, ptr %3, align 8
  store i64 %1, ptr %4, align 8
  %5 = load i64, ptr %4, align 8
  %6 = inttoptr i64 %5 to ptr
  ret ptr %6
}

; Function Attrs: mustprogress nounwind uwtable
define linkonce_odr noundef i64 @_ZNK32pxrInternal_v0_24__pxrReserved__16TfPointerAndBitsIKNS_7TfToken4_RepEE11_GetBitMaskEv(ptr noundef nonnull align 8 dereferenceable(8) %0) #1 comdat align 2 personality ptr @__gxx_personality_v0 {
  %2 = alloca ptr, align 8
  store ptr %0, ptr %2, align 8
  %3 = load ptr, ptr %2, align 8
  %4 = invoke noundef i64 @_ZNK32pxrInternal_v0_24__pxrReserved__16TfPointerAndBitsIKNS_7TfToken4_RepEE11GetMaxValueEv(ptr noundef nonnull align 8 dereferenceable(8) %3)
          to label %5 unwind label %6

5:                                                ; preds = %1
  ret i64 %4

6:                                                ; preds = %1
  %7 = landingpad { ptr, i32 }
          catch ptr null
  %8 = extractvalue { ptr, i32 } %7, 0
  call void @__clang_call_terminate(ptr %8) #18
  unreachable
}

; Function Attrs: mustprogress nounwind uwtable
define linkonce_odr noundef i64 @_ZNK32pxrInternal_v0_24__pxrReserved__16TfPointerAndBitsIKNS_7TfToken4_RepEE6_AsIntEPS3_(ptr noundef nonnull align 8 dereferenceable(8) %0, ptr noundef %1) #1 comdat align 2 {
  %3 = alloca ptr, align 8
  %4 = alloca ptr, align 8
  store ptr %0, ptr %3, align 8
  store ptr %1, ptr %4, align 8
  %5 = load ptr, ptr %4, align 8
  %6 = ptrtoint ptr %5 to i64
  ret i64 %6
}

; Function Attrs: mustprogress nounwind uwtable
define linkonce_odr noundef ptr @_ZNK32pxrInternal_v0_24__pxrReserved__16TfPointerAndBitsIKNS_7TfToken4_RepEE7_GetPtrEv(ptr noundef nonnull align 8 dereferenceable(8) %0) #1 comdat align 2 {
  %2 = alloca ptr, align 8
  store ptr %0, ptr %2, align 8
  %3 = load ptr, ptr %2, align 8
  %4 = getelementptr inbounds nuw %"class.pxrInternal_v0_24__pxrReserved__::TfPointerAndBits", ptr %3, i32 0, i32 0
  %5 = load ptr, ptr %4, align 8
  %6 = call noundef i64 @_ZNK32pxrInternal_v0_24__pxrReserved__16TfPointerAndBitsIKNS_7TfToken4_RepEE6_AsIntEPS3_(ptr noundef nonnull align 8 dereferenceable(8) %3, ptr noundef %5) #7
  %7 = call noundef i64 @_ZNK32pxrInternal_v0_24__pxrReserved__16TfPointerAndBitsIKNS_7TfToken4_RepEE11_GetBitMaskEv(ptr noundef nonnull align 8 dereferenceable(8) %3) #7
  %8 = xor i64 %7, -1
  %9 = and i64 %6, %8
  %10 = call noundef ptr @_ZNK32pxrInternal_v0_24__pxrReserved__16TfPointerAndBitsIKNS_7TfToken4_RepEE6_AsPtrEm(ptr noundef nonnull align 8 dereferenceable(8) %3, i64 noundef %9) #7
  ret ptr %10
}

; Function Attrs: mustprogress nounwind uwtable
define linkonce_odr noundef ptr @_ZNK32pxrInternal_v0_24__pxrReserved__16TfPointerAndBitsIKNS_7TfToken4_RepEE3GetEv(ptr noundef nonnull align 8 dereferenceable(8) %0) #1 comdat align 2 {
  %2 = alloca ptr, align 8
  store ptr %0, ptr %2, align 8
  %3 = load ptr, ptr %2, align 8
  %4 = call noundef ptr @_ZNK32pxrInternal_v0_24__pxrReserved__16TfPointerAndBitsIKNS_7TfToken4_RepEE7_GetPtrEv(ptr noundef nonnull align 8 dereferenceable(8) %3) #7
  ret ptr %4
}

; Function Attrs: mustprogress nounwind uwtable
define linkonce_odr noundef zeroext i1 @_ZZN32pxrInternal_v0_24__pxrReserved__19TfIsValidIdentifierERKNSt7__cxx1112basic_stringIcSt11char_traitsIcESaIcEEEENKUljE1_clEj(ptr noundef nonnull align 1 dereferenceable(1) %0, i32 noundef %1) #1 comdat align 2 {
  %3 = alloca ptr, align 8
  %4 = alloca i32, align 4
  store ptr %0, ptr %3, align 8
  store i32 %1, ptr %4, align 4
  %5 = load i32, ptr %4, align 4
  %6 = icmp eq i32 %5, 95
  ret i1 %6
}

; Function Attrs: mustprogress nounwind uwtable
define linkonce_odr noundef zeroext i1 @_ZZN32pxrInternal_v0_24__pxrReserved__19TfIsValidIdentifierERKNSt7__cxx1112basic_stringIcSt11char_traitsIcESaIcEEEENKUljE_clEj(ptr noundef nonnull align 1 dereferenceable(1) %0, i32 noundef %1) #1 comdat align 2 {
  %3 = alloca ptr, align 8
  %4 = alloca i32, align 4
  store ptr %0, ptr %3, align 8
  store i32 %1, ptr %4, align 4
  %5 = load i32, ptr %4, align 4
  %6 = sub i32 %5, 65
  %7 = icmp ult i32 %6, 26
  br i1 %7, label %12, label %8

8:                                                ; preds = %2
  %9 = load i32, ptr %4, align 4
  %10 = sub i32 %9, 97
  %11 = icmp ult i32 %10, 26
  br label %12

12:                                               ; preds = %8, %2
  %13 = phi i1 [ true, %2 ], [ %11, %8 ]
  ret i1 %13
}

; Function Attrs: mustprogress nounwind uwtable
define linkonce_odr noundef zeroext i1 @_ZZN32pxrInternal_v0_24__pxrReserved__19TfIsValidIdentifierERKNSt7__cxx1112basic_stringIcSt11char_traitsIcESaIcEEEENKUljE0_clEj(ptr noundef nonnull align 1 dereferenceable(1) %0, i32 noundef %1) #1 comdat align 2 {
  %3 = alloca ptr, align 8
  %4 = alloca i32, align 4
  store ptr %0, ptr %3, align 8
  store i32 %1, ptr %4, align 4
  %5 = load i32, ptr %4, align 4
  %6 = sub i32 %5, 48
  %7 = icmp ult i32 %6, 10
  ret i1 %7
}

; Function Attrs: mustprogress uwtable
define linkonce_odr noundef nonnull align 8 dereferenceable(32) ptr @_ZNK32pxrInternal_v0_24__pxrReserved__7TfToken9GetStringB5cxx11Ev(ptr noundef nonnull align 8 dereferenceable(8) %0) #0 comdat align 2 {
  %2 = alloca ptr, align 8
  %3 = alloca ptr, align 8
  store ptr %0, ptr %2, align 8
  %4 = load ptr, ptr %2, align 8
  %5 = getelementptr inbounds nuw %"class.pxrInternal_v0_24__pxrReserved__::TfToken", ptr %4, i32 0, i32 0
  %6 = call noundef ptr @_ZNK32pxrInternal_v0_24__pxrReserved__16TfPointerAndBitsIKNS_7TfToken4_RepEE3GetEv(ptr noundef nonnull align 8 dereferenceable(8) %5) #7
  store ptr %6, ptr %3, align 8
  %7 = load ptr, ptr %3, align 8
  %8 = icmp ne ptr %7, null
  br i1 %8, label %9, label %12

9:                                                ; preds = %1
  %10 = load ptr, ptr %3, align 8
  %11 = getelementptr inbounds nuw %"struct.pxrInternal_v0_24__pxrReserved__::TfToken::_Rep", ptr %10, i32 0, i32 3
  br label %14

12:                                               ; preds = %1
  %13 = call noundef nonnull align 8 dereferenceable(32) ptr @_ZN32pxrInternal_v0_24__pxrReserved__7TfToken15_GetEmptyStringB5cxx11Ev()
  br label %14

14:                                               ; preds = %12, %9
  %15 = phi ptr [ %11, %9 ], [ %13, %12 ]
  ret ptr %15
}

; Function Attrs: mustprogress nounwind uwtable
define internal noundef i64 @_ZN32pxrInternal_v0_24__pxrReserved__L21_FindVersionDelimiterERKNSt7__cxx1112basic_stringIcSt11char_traitsIcESaIcEEE(ptr noundef nonnull align 8 dereferenceable(32) %0) #1 {
  %2 = alloca i64, align 8
  %3 = alloca ptr, align 8
  %4 = alloca i64, align 8
  %5 = alloca i64, align 8
  store ptr %0, ptr %3, align 8
  %6 = load ptr, ptr %3, align 8
  %7 = call noundef i64 @_ZNKSt7__cxx1112basic_stringIcSt11char_traitsIcESaIcEE4sizeEv(ptr noundef nonnull align 8 dereferenceable(32) %6) #7
  store i64 %7, ptr %4, align 8
  %8 = load i64, ptr %4, align 8
  %9 = icmp ult i64 %8, 2
  br i1 %9, label %10, label %11

10:                                               ; preds = %1
  store i64 -1, ptr %2, align 8
  br label %47

11:                                               ; preds = %1
  %12 = load i64, ptr %4, align 8
  %13 = sub i64 %12, 1
  store i64 %13, ptr %5, align 8
  %14 = load ptr, ptr %3, align 8
  %15 = load i64, ptr %5, align 8
  %16 = call noundef nonnull align 1 dereferenceable(1) ptr @_ZNKSt7__cxx1112basic_stringIcSt11char_traitsIcESaIcEEixEm(ptr noundef nonnull align 8 dereferenceable(32) %14, i64 noundef %15) #7
  %17 = load i8, ptr %16, align 1
  %18 = sext i8 %17 to i32
  %19 = call i32 @isdigit(i32 noundef %18) #20
  %20 = icmp ne i32 %19, 0
  br i1 %20, label %22, label %21

21:                                               ; preds = %11
  store i64 -1, ptr %2, align 8
  br label %47

22:                                               ; preds = %11
  br label %23

23:                                               ; preds = %45, %22
  %24 = load i64, ptr %5, align 8
  %25 = add i64 %24, -1
  store i64 %25, ptr %5, align 8
  %26 = icmp uge i64 %25, 0
  br i1 %26, label %27, label %46

27:                                               ; preds = %23
  %28 = load ptr, ptr %3, align 8
  %29 = load i64, ptr %5, align 8
  %30 = call noundef nonnull align 1 dereferenceable(1) ptr @_ZNKSt7__cxx1112basic_stringIcSt11char_traitsIcESaIcEEixEm(ptr noundef nonnull align 8 dereferenceable(32) %28, i64 noundef %29) #7
  %31 = load i8, ptr %30, align 1
  %32 = sext i8 %31 to i32
  %33 = icmp eq i32 %32, 95
  br i1 %33, label %34, label %36

34:                                               ; preds = %27
  %35 = load i64, ptr %5, align 8
  store i64 %35, ptr %2, align 8
  br label %47

36:                                               ; preds = %27
  %37 = load ptr, ptr %3, align 8
  %38 = load i64, ptr %5, align 8
  %39 = call noundef nonnull align 1 dereferenceable(1) ptr @_ZNKSt7__cxx1112basic_stringIcSt11char_traitsIcESaIcEEixEm(ptr noundef nonnull align 8 dereferenceable(32) %37, i64 noundef %38) #7
  %40 = load i8, ptr %39, align 1
  %41 = sext i8 %40 to i32
  %42 = call i32 @isdigit(i32 noundef %41) #20
  %43 = icmp ne i32 %42, 0
  br i1 %43, label %45, label %44

44:                                               ; preds = %36
  store i64 -1, ptr %2, align 8
  br label %47

45:                                               ; preds = %36
  br label %23, !llvm.loop !7

46:                                               ; preds = %23
  store i64 -1, ptr %2, align 8
  br label %47

47:                                               ; preds = %46, %44, %34, %21, %10
  %48 = load i64, ptr %2, align 8
  ret i64 %48
}

; Function Attrs: mustprogress uwtable
define linkonce_odr noundef zeroext i1 @_ZN32pxrInternal_v0_24__pxrReserved__19TfIsValidIdentifierERKNSt7__cxx1112basic_stringIcSt11char_traitsIcESaIcEEE(ptr noundef nonnull align 8 dereferenceable(32) %0) #0 comdat {
  %2 = alloca i1, align 1
  %3 = alloca ptr, align 8
  %4 = alloca ptr, align 8
  %5 = alloca %class.anon.362, align 1
  %6 = alloca %class.anon.364, align 1
  %7 = alloca %class.anon.366, align 1
  %8 = alloca i32, align 4
  store ptr %0, ptr %3, align 8
  %9 = load ptr, ptr %3, align 8
  %10 = call noundef ptr @_ZNKSt7__cxx1112basic_stringIcSt11char_traitsIcESaIcEE5c_strEv(ptr noundef nonnull align 8 dereferenceable(32) %9) #7
  store ptr %10, ptr %4, align 8
  %11 = load ptr, ptr %4, align 8
  %12 = load i8, ptr %11, align 1
  %13 = sext i8 %12 to i32
  store i32 %13, ptr %8, align 4
  %14 = load i32, ptr %8, align 4
  %15 = icmp ne i32 %14, 0
  br i1 %15, label %16, label %19

16:                                               ; preds = %1
  %17 = load i32, ptr %8, align 4
  %18 = call noundef zeroext i1 @_ZZN32pxrInternal_v0_24__pxrReserved__19TfIsValidIdentifierERKNSt7__cxx1112basic_stringIcSt11char_traitsIcESaIcEEEENKUljE0_clEj(ptr noundef nonnull align 1 dereferenceable(1) %6, i32 noundef %17)
  br i1 %18, label %19, label %20

19:                                               ; preds = %16, %1
  store i1 false, ptr %2, align 1
  br label %40

20:                                               ; preds = %16
  br label %21

21:                                               ; preds = %32, %20
  %22 = load i32, ptr %8, align 4
  %23 = call noundef zeroext i1 @_ZZN32pxrInternal_v0_24__pxrReserved__19TfIsValidIdentifierERKNSt7__cxx1112basic_stringIcSt11char_traitsIcESaIcEEEENKUljE_clEj(ptr noundef nonnull align 1 dereferenceable(1) %5, i32 noundef %22)
  br i1 %23, label %30, label %24

24:                                               ; preds = %21
  %25 = load i32, ptr %8, align 4
  %26 = call noundef zeroext i1 @_ZZN32pxrInternal_v0_24__pxrReserved__19TfIsValidIdentifierERKNSt7__cxx1112basic_stringIcSt11char_traitsIcESaIcEEEENKUljE0_clEj(ptr noundef nonnull align 1 dereferenceable(1) %6, i32 noundef %25)
  br i1 %26, label %30, label %27

27:                                               ; preds = %24
  %28 = load i32, ptr %8, align 4
  %29 = call noundef zeroext i1 @_ZZN32pxrInternal_v0_24__pxrReserved__19TfIsValidIdentifierERKNSt7__cxx1112basic_stringIcSt11char_traitsIcESaIcEEEENKUljE1_clEj(ptr noundef nonnull align 1 dereferenceable(1) %7, i32 noundef %28)
  br label %30

30:                                               ; preds = %27, %24, %21
  %31 = phi i1 [ true, %24 ], [ true, %21 ], [ %29, %27 ]
  br i1 %31, label %32, label %37

32:                                               ; preds = %30
  %33 = load ptr, ptr %4, align 8
  %34 = getelementptr inbounds i8, ptr %33, i32 1
  store ptr %34, ptr %4, align 8
  %35 = load i8, ptr %33, align 1
  %36 = sext i8 %35 to i32
  store i32 %36, ptr %8, align 4
  br label %21, !llvm.loop !8

37:                                               ; preds = %30
  %38 = load i32, ptr %8, align 4
  %39 = icmp eq i32 %38, 0
  store i1 %39, ptr %2, align 1
  br label %40

40:                                               ; preds = %37, %19
  %41 = load i1, ptr %2, align 1
  ret i1 %41
}

; Function Attrs: mustprogress uwtable
define linkonce_odr noundef nonnull align 8 dereferenceable(32) ptr @_ZNK32pxrInternal_v0_24__pxrReserved__7TfTokencvRKNSt7__cxx1112basic_stringIcSt11char_traitsIcESaIcEEEEv(ptr noundef nonnull align 8 dereferenceable(8) %0) #0 comdat align 2 {
  %2 = alloca ptr, align 8
  store ptr %0, ptr %2, align 8
  %3 = load ptr, ptr %2, align 8
  %4 = call noundef nonnull align 8 dereferenceable(32) ptr @_ZNK32pxrInternal_v0_24__pxrReserved__7TfToken9GetStringB5cxx11Ev(ptr noundef nonnull align 8 dereferenceable(8) %3)
  ret ptr %4
}

; Function Attrs: mustprogress uwtable
define noundef zeroext i1 @_ZN32pxrInternal_v0_24__pxrReserved__17UsdSchemaRegistry21IsAllowedSchemaFamilyERKNS_7TfTokenE(ptr noundef nonnull align 8 dereferenceable(8) %0) #0 align 2 {
  %2 = alloca ptr, align 8
  store ptr %0, ptr %2, align 8
  %3 = load ptr, ptr %2, align 8
  %4 = call noundef nonnull align 8 dereferenceable(32) ptr @_ZNK32pxrInternal_v0_24__pxrReserved__7TfTokencvRKNSt7__cxx1112basic_stringIcSt11char_traitsIcESaIcEEEEv(ptr noundef nonnull align 8 dereferenceable(8) %3)
  %5 = call noundef zeroext i1 @_ZN32pxrInternal_v0_24__pxrReserved__19TfIsValidIdentifierERKNSt7__cxx1112basic_stringIcSt11char_traitsIcESaIcEEE(ptr noundef nonnull align 8 dereferenceable(32) %4)
  br i1 %5, label %6, label %11

6:                                                ; preds = %1
  %7 = load ptr, ptr %2, align 8
  %8 = call noundef nonnull align 8 dereferenceable(32) ptr @_ZNK32pxrInternal_v0_24__pxrReserved__7TfTokencvRKNSt7__cxx1112basic_stringIcSt11char_traitsIcESaIcEEEEv(ptr noundef nonnull align 8 dereferenceable(8) %7)
  %9 = call noundef i64 @_ZN32pxrInternal_v0_24__pxrReserved__L21_FindVersionDelimiterERKNSt7__cxx1112basic_stringIcSt11char_traitsIcESaIcEEE(ptr noundef nonnull align 8 dereferenceable(32) %8)
  %10 = icmp eq i64 %9, -1
  br label %11

11:                                               ; preds = %6, %1
  %12 = phi i1 [ false, %1 ], [ %10, %6 ]
  ret i1 %12
}