; Function Attrs: mustprogress uwtable
define noundef zeroext i1 @_ZN32pxrInternal_v0_24__pxrReserved__17UsdSchemaRegistry21IsAllowedSchemaFamilyERKNS_7TfTokenE(ptr nocapture noundef nonnull readonly align 8 dereferenceable(8) %0) local_unnamed_addr #0 align 2 personality ptr @__gxx_personality_v0 {
  %2 = load ptr, ptr %0, align 8
  %3 = ptrtoint ptr %2 to i64
  %4 = and i64 %3, -8
  %.not.i.i = icmp eq i64 %4, 0
  br i1 %.not.i.i, label %8, label %5

5:                                                ; preds = %1
  %6 = inttoptr i64 %4 to ptr
  %7 = getelementptr inbounds nuw i8, ptr %6, i64 16
  br label %_ZNK32pxrInternal_v0_24__pxrReserved__7TfTokencvRKNSt7__cxx1112basic_stringIcSt11char_traitsIcESaIcEEEEv.exit

8:                                                ; preds = %1
  %9 = tail call noundef nonnull align 8 dereferenceable(32) ptr @_ZN32pxrInternal_v0_24__pxrReserved__7TfToken15_GetEmptyStringB5cxx11Ev()
  br label %_ZNK32pxrInternal_v0_24__pxrReserved__7TfTokencvRKNSt7__cxx1112basic_stringIcSt11char_traitsIcESaIcEEEEv.exit

_ZNK32pxrInternal_v0_24__pxrReserved__7TfTokencvRKNSt7__cxx1112basic_stringIcSt11char_traitsIcESaIcEEEEv.exit: ; preds = %5, %8
  %10 = phi ptr [ %7, %5 ], [ %9, %8 ]
  %11 = tail call noundef ptr @_ZNKSt7__cxx1112basic_stringIcSt11char_traitsIcESaIcEE5c_strEv(ptr noundef nonnull align 8 dereferenceable(32) %10) #21
  %12 = load i8, ptr %11, align 1
  %.not.i = icmp eq i8 %12, 0
  %13 = sext i8 %12 to i32
  %14 = add nsw i32 %13, -48
  %15 = icmp ult i32 %14, 10
  %or.cond.i = select i1 %.not.i, i1 true, i1 %15
  br i1 %or.cond.i, label %_ZN32pxrInternal_v0_24__pxrReserved__19TfIsValidIdentifierERKNSt7__cxx1112basic_stringIcSt11char_traitsIcESaIcEEE.exit.thread, label %.preheader.i

.preheader.i:                                     ; preds = %_ZNK32pxrInternal_v0_24__pxrReserved__7TfTokencvRKNSt7__cxx1112basic_stringIcSt11char_traitsIcESaIcEEEEv.exit
  %16 = and i32 %13, -33
  %17 = add nsw i32 %16, -65
  %18 = icmp ult i32 %17, 26
  %19 = icmp eq i8 %12, 95
  %or.cond1618.i = or i1 %19, %18
  br i1 %or.cond1618.i, label %.critedge.i, label %_ZN32pxrInternal_v0_24__pxrReserved__19TfIsValidIdentifierERKNSt7__cxx1112basic_stringIcSt11char_traitsIcESaIcEEE.exit.thread

.critedge.i:                                      ; preds = %.preheader.i, %.critedge.i
  %.0919.i = phi ptr [ %20, %.critedge.i ], [ %11, %.preheader.i ]
  %20 = getelementptr inbounds i8, ptr %.0919.i, i64 1
  %21 = load i8, ptr %.0919.i, align 1
  %22 = sext i8 %21 to i32
  %23 = and i32 %22, -33
  %24 = add nsw i32 %23, -65
  %25 = icmp ult i32 %24, 26
  %26 = add nsw i32 %22, -48
  %27 = icmp ult i32 %26, 10
  %or.cond15.i = select i1 %25, i1 true, i1 %27
  %28 = icmp eq i8 %21, 95
  %or.cond16.i = or i1 %28, %or.cond15.i
  br i1 %or.cond16.i, label %.critedge.i, label %_ZN32pxrInternal_v0_24__pxrReserved__19TfIsValidIdentifierERKNSt7__cxx1112basic_stringIcSt11char_traitsIcESaIcEEE.exit, !llvm.loop !18

_ZN32pxrInternal_v0_24__pxrReserved__19TfIsValidIdentifierERKNSt7__cxx1112basic_stringIcSt11char_traitsIcESaIcEEE.exit: ; preds = %.critedge.i
  %29 = icmp eq i8 %21, 0
  br i1 %29, label %30, label %_ZN32pxrInternal_v0_24__pxrReserved__19TfIsValidIdentifierERKNSt7__cxx1112basic_stringIcSt11char_traitsIcESaIcEEE.exit.thread

30:                                               ; preds = %_ZN32pxrInternal_v0_24__pxrReserved__19TfIsValidIdentifierERKNSt7__cxx1112basic_stringIcSt11char_traitsIcESaIcEEE.exit
  %31 = load ptr, ptr %0, align 8
  %32 = ptrtoint ptr %31 to i64
  %33 = and i64 %32, -8
  %.not.i.i2 = icmp eq i64 %33, 0
  br i1 %.not.i.i2, label %37, label %34

34:                                               ; preds = %30
  %35 = inttoptr i64 %33 to ptr
  %36 = getelementptr inbounds nuw i8, ptr %35, i64 16
  br label %_ZNK32pxrInternal_v0_24__pxrReserved__7TfTokencvRKNSt7__cxx1112basic_stringIcSt11char_traitsIcESaIcEEEEv.exit3

37:                                               ; preds = %30
  %38 = tail call noundef nonnull align 8 dereferenceable(32) ptr @_ZN32pxrInternal_v0_24__pxrReserved__7TfToken15_GetEmptyStringB5cxx11Ev()
  br label %_ZNK32pxrInternal_v0_24__pxrReserved__7TfTokencvRKNSt7__cxx1112basic_stringIcSt11char_traitsIcESaIcEEEEv.exit3

_ZNK32pxrInternal_v0_24__pxrReserved__7TfTokencvRKNSt7__cxx1112basic_stringIcSt11char_traitsIcESaIcEEEEv.exit3: ; preds = %34, %37
  %39 = phi ptr [ %36, %34 ], [ %38, %37 ]
  %40 = tail call noundef i64 @_ZNKSt7__cxx1112basic_stringIcSt11char_traitsIcESaIcEE4sizeEv(ptr noundef nonnull align 8 dereferenceable(32) %39) #21
  %41 = icmp ult i64 %40, 2
  br i1 %41, label %_ZN32pxrInternal_v0_24__pxrReserved__19TfIsValidIdentifierERKNSt7__cxx1112basic_stringIcSt11char_traitsIcESaIcEEE.exit.thread, label %42

42:                                               ; preds = %_ZNK32pxrInternal_v0_24__pxrReserved__7TfTokencvRKNSt7__cxx1112basic_stringIcSt11char_traitsIcESaIcEEEEv.exit3
  %43 = add i64 %40, -1
  %44 = tail call noundef nonnull align 1 dereferenceable(1) ptr @_ZNKSt7__cxx1112basic_stringIcSt11char_traitsIcESaIcEEixEm(ptr noundef nonnull align 8 dereferenceable(32) %39, i64 noundef %43) #21
  %45 = load i8, ptr %44, align 1
  %46 = sext i8 %45 to i32
  %isdigittmp.i = add nsw i32 %46, -48
  %isdigit.i = icmp ult i32 %isdigittmp.i, 10
  br i1 %isdigit.i, label %.preheader.i4, label %_ZN32pxrInternal_v0_24__pxrReserved__19TfIsValidIdentifierERKNSt7__cxx1112basic_stringIcSt11char_traitsIcESaIcEEE.exit.thread

.preheader.i4:                                    ; preds = %42, %51
  %.0.i = phi i64 [ %47, %51 ], [ %43, %42 ]
  %47 = add i64 %.0.i, -1
  %48 = tail call noundef nonnull align 1 dereferenceable(1) ptr @_ZNKSt7__cxx1112basic_stringIcSt11char_traitsIcESaIcEEixEm(ptr noundef nonnull align 8 dereferenceable(32) %39, i64 noundef %47) #21
  %49 = load i8, ptr %48, align 1
  %50 = icmp eq i8 %49, 95
  br i1 %50, label %_ZN32pxrInternal_v0_24__pxrReserved__L21_FindVersionDelimiterERKNSt7__cxx1112basic_stringIcSt11char_traitsIcESaIcEEE.exit.loopexit, label %51

51:                                               ; preds = %.preheader.i4
  %52 = tail call noundef nonnull align 1 dereferenceable(1) ptr @_ZNKSt7__cxx1112basic_stringIcSt11char_traitsIcESaIcEEixEm(ptr noundef nonnull align 8 dereferenceable(32) %39, i64 noundef %47) #21
  %53 = load i8, ptr %52, align 1
  %54 = sext i8 %53 to i32
  %isdigittmp13.i = add nsw i32 %54, -48
  %isdigit14.i = icmp ult i32 %isdigittmp13.i, 10
  br i1 %isdigit14.i, label %.preheader.i4, label %_ZN32pxrInternal_v0_24__pxrReserved__L21_FindVersionDelimiterERKNSt7__cxx1112basic_stringIcSt11char_traitsIcESaIcEEE.exit.loopexit, !llvm.loop !11

_ZN32pxrInternal_v0_24__pxrReserved__L21_FindVersionDelimiterERKNSt7__cxx1112basic_stringIcSt11char_traitsIcESaIcEEE.exit.loopexit: ; preds = %51, %.preheader.i4
  %.011.i.ph = phi i64 [ -1, %51 ], [ %47, %.preheader.i4 ]
  %55 = icmp eq i64 %.011.i.ph, -1
  br label %_ZN32pxrInternal_v0_24__pxrReserved__19TfIsValidIdentifierERKNSt7__cxx1112basic_stringIcSt11char_traitsIcESaIcEEE.exit.thread

_ZN32pxrInternal_v0_24__pxrReserved__19TfIsValidIdentifierERKNSt7__cxx1112basic_stringIcSt11char_traitsIcESaIcEEE.exit.thread: ; preds = %42, %_ZNK32pxrInternal_v0_24__pxrReserved__7TfTokencvRKNSt7__cxx1112basic_stringIcSt11char_traitsIcESaIcEEEEv.exit3, %_ZN32pxrInternal_v0_24__pxrReserved__L21_FindVersionDelimiterERKNSt7__cxx1112basic_stringIcSt11char_traitsIcESaIcEEE.exit.loopexit, %.preheader.i, %_ZNK32pxrInternal_v0_24__pxrReserved__7TfTokencvRKNSt7__cxx1112basic_stringIcSt11char_traitsIcESaIcEEEEv.exit, %_ZN32pxrInternal_v0_24__pxrReserved__19TfIsValidIdentifierERKNSt7__cxx1112basic_stringIcSt11char_traitsIcESaIcEEE.exit
  %56 = phi i1 [ false, %_ZN32pxrInternal_v0_24__pxrReserved__19TfIsValidIdentifierERKNSt7__cxx1112basic_stringIcSt11char_traitsIcESaIcEEE.exit ], [ false, %_ZNK32pxrInternal_v0_24__pxrReserved__7TfTokencvRKNSt7__cxx1112basic_stringIcSt11char_traitsIcESaIcEEEEv.exit ], [ false, %.preheader.i ], [ true, %_ZNK32pxrInternal_v0_24__pxrReserved__7TfTokencvRKNSt7__cxx1112basic_stringIcSt11char_traitsIcESaIcEEEEv.exit3 ], [ true, %42 ], [ %55, %_ZN32pxrInternal_v0_24__pxrReserved__L21_FindVersionDelimiterERKNSt7__cxx1112basic_stringIcSt11char_traitsIcESaIcEEE.exit.loopexit ]
  ret i1 %56
}